target datalayout = "e-m:e-p270:32:32-p271:32:32-p272:64:64-i64:64-i128:128-f80:128-n8:16:32:64-S128"
target triple = "x86_64-pc-linux-gnu"

%struct.pmix_object_t = type { %union.pthread_mutex_t, ptr, i32, %struct.pmix_tma }
%union.pthread_mutex_t = type { %struct.__pthread_mutex_s }
%struct.__pthread_mutex_s = type { i32, i32, i32, i32, i32, i16, i16, %struct.__pthread_internal_list }
%struct.__pthread_internal_list = type { ptr, ptr }
%struct.pmix_tma = type { ptr, ptr, ptr, ptr, ptr, ptr, ptr, ptr }
%struct.pmix_proc = type { [256 x i8], i32 }
%struct.timeval = type { i64, i64 }
%struct.pmix_server_req_t = type { %struct.pmix_object_t, %struct.event, i8, %struct.event, i8, i8, i8, ptr, ptr, ptr, i32, i32, i32, i32, i32, i8, i8, i8, i8, i32, i32, i32, i8, i32, ptr, i64, ptr, i64, i8, %struct.pmix_proc, %struct.pmix_proc, %struct.pmix_proc, ptr, %struct.pmix_data_buffer, ptr, ptr, ptr, ptr, ptr, ptr, ptr, ptr, ptr }
%struct.event = type { %struct.event_callback, %union.anon.0, i32, ptr, %union.anon.2, i16, i16, %struct.timeval }
%struct.event_callback = type { %struct.anon, i16, i8, i8, %union.anon, ptr }
%struct.anon = type { ptr, ptr }
%union.anon = type { ptr }
%union.anon.0 = type { %struct.anon.1 }
%struct.anon.1 = type { ptr, ptr }
%union.anon.2 = type { %struct.anon.3 }
%struct.anon.3 = type { %struct.anon.4, %struct.timeval }
%struct.anon.4 = type { ptr, ptr }
%struct.pmix_data_buffer = type { ptr, ptr, ptr, i64, i64 }

@prte_event_base = external global ptr, align 8
@.str.47 = private unnamed_addr constant [25 x i8] c"prted/pmix/pmix_server.c\00", align 1
@.str.259 = private unnamed_addr constant [37 x i8] c"PRTE ERROR: %s in file %s at line %d\00", align 1

; Function Attrs: inlinehint nounwind uwtable
define internal void @pmix_atomic_wmb() #4 {
  fence release
  ret void
}

; Function Attrs: inlinehint nounwind uwtable
define internal void @pmix_atomic_rmb() #4 {
  fence acquire
  ret void
}

; Function Attrs: nounwind uwtable
define internal void @modex_resp(i32 noundef %0, ptr noundef %1, i64 noundef %2, ptr noundef %3) #0 {
  %5 = alloca i32, align 4
  %6 = alloca ptr, align 8
  %7 = alloca i64, align 8
  %8 = alloca ptr, align 8
  %9 = alloca ptr, align 8
  store i32 %0, ptr %5, align 4, !tbaa !29
  store ptr %1, ptr %6, align 8, !tbaa !26
  store i64 %2, ptr %7, align 8, !tbaa !97
  store ptr %3, ptr %8, align 8, !tbaa !36
  call void @llvm.lifetime.start.p0(i64 8, ptr %9) #13
  %10 = load ptr, ptr %8, align 8, !tbaa !36
  store ptr %10, ptr %9, align 8, !tbaa !36
  call void @pmix_atomic_rmb()
  %11 = load ptr, ptr %9, align 8, !tbaa !36
  %12 = getelementptr inbounds nuw %struct.pmix_server_req_t, ptr %11, i32 0, i32 2
  %13 = load i8, ptr %12, align 8, !tbaa !50, !range !51, !noundef !52
  %14 = trunc i8 %13 to i1
  br i1 %14, label %15, label %21

15:                                               ; preds = %4
  %16 = load ptr, ptr %9, align 8, !tbaa !36
  %17 = getelementptr inbounds nuw %struct.pmix_server_req_t, ptr %16, i32 0, i32 1
  %18 = call i32 @event_del(ptr noundef %17)
  %19 = load ptr, ptr %9, align 8, !tbaa !36
  %20 = getelementptr inbounds nuw %struct.pmix_server_req_t, ptr %19, i32 0, i32 2
  store i8 0, ptr %20, align 8, !tbaa !50
  br label %21

21:                                               ; preds = %15, %4
  %22 = load ptr, ptr %9, align 8, !tbaa !36
  %23 = getelementptr inbounds nuw %struct.pmix_server_req_t, ptr %22, i32 0, i32 4
  %24 = load i8, ptr %23, align 8, !tbaa !53, !range !51, !noundef !52
  %25 = trunc i8 %24 to i1
  br i1 %25, label %26, label %32

26:                                               ; preds = %21
  %27 = load ptr, ptr %9, align 8, !tbaa !36
  %28 = getelementptr inbounds nuw %struct.pmix_server_req_t, ptr %27, i32 0, i32 3
  %29 = call i32 @event_del(ptr noundef %28)
  %30 = load ptr, ptr %9, align 8, !tbaa !36
  %31 = getelementptr inbounds nuw %struct.pmix_server_req_t, ptr %30, i32 0, i32 4
  store i8 0, ptr %31, align 8, !tbaa !53
  br label %32

32:                                               ; preds = %26, %21
  %33 = load ptr, ptr %9, align 8, !tbaa !36
  %34 = getelementptr inbounds nuw %struct.pmix_server_req_t, ptr %33, i32 0, i32 5
  store i8 0, ptr %34, align 1, !tbaa !54
  %35 = load i32, ptr %5, align 4, !tbaa !29
  %36 = load ptr, ptr %9, align 8, !tbaa !36
  %37 = getelementptr inbounds nuw %struct.pmix_server_req_t, ptr %36, i32 0, i32 11
  store i32 %35, ptr %37, align 4, !tbaa !238
  %38 = load i32, ptr %5, align 4, !tbaa !29
  %39 = icmp eq i32 0, %38
  br i1 %39, label %40, label %66

40:                                               ; preds = %32
  %41 = load ptr, ptr %6, align 8, !tbaa !26
  %42 = icmp ne ptr null, %41
  br i1 %42, label %43, label %66

43:                                               ; preds = %40
  %44 = load i64, ptr %7, align 8, !tbaa !97
  %45 = call noalias ptr @malloc(i64 noundef %44) #17
  %46 = load ptr, ptr %9, align 8, !tbaa !36
  %47 = getelementptr inbounds nuw %struct.pmix_server_req_t, ptr %46, i32 0, i32 26
  store ptr %45, ptr %47, align 8, !tbaa !206
  %48 = load ptr, ptr %9, align 8, !tbaa !36
  %49 = getelementptr inbounds nuw %struct.pmix_server_req_t, ptr %48, i32 0, i32 26
  %50 = load ptr, ptr %49, align 8, !tbaa !206
  %51 = icmp eq ptr null, %50
  br i1 %51, label %52, label %57

52:                                               ; preds = %43
  br label %53

53:                                               ; preds = %52
  %54 = call ptr @prte_strerror(i32 noundef -2)
  call void (i32, ptr, ...) @pmix_output(i32 noundef 0, ptr noundef @.str.259, ptr noundef %54, ptr noundef @.str.47, i32 noundef 1125)
  br label %55

55:                                               ; preds = %53
  br label %56

56:                                               ; preds = %55
  br label %57

57:                                               ; preds = %56, %43
  %58 = load ptr, ptr %9, align 8, !tbaa !36
  %59 = getelementptr inbounds nuw %struct.pmix_server_req_t, ptr %58, i32 0, i32 26
  %60 = load ptr, ptr %59, align 8, !tbaa !206
  %61 = load ptr, ptr %6, align 8, !tbaa !26
  %62 = load i64, ptr %7, align 8, !tbaa !97
  call void @llvm.memcpy.p0.p0.i64(ptr align 1 %60, ptr align 1 %61, i64 %62, i1 false)
  %63 = load i64, ptr %7, align 8, !tbaa !97
  %64 = load ptr, ptr %9, align 8, !tbaa !36
  %65 = getelementptr inbounds nuw %struct.pmix_server_req_t, ptr %64, i32 0, i32 27
  store i64 %63, ptr %65, align 8, !tbaa !207
  br label %66

66:                                               ; preds = %57, %40, %32
  %67 = load ptr, ptr %9, align 8, !tbaa !36
  %68 = getelementptr inbounds nuw %struct.pmix_server_req_t, ptr %67, i32 0, i32 1
  %69 = load ptr, ptr @prte_event_base, align 8, !tbaa !79
  %70 = load ptr, ptr %9, align 8, !tbaa !36
  %71 = call i32 @prte_event_assign(ptr noundef %68, ptr noundef %69, i32 noundef -1, i16 noundef signext 4, ptr noundef @_mdxresp, ptr noundef %70)
  call void @pmix_atomic_wmb()
  %72 = load ptr, ptr %9, align 8, !tbaa !36
  %73 = getelementptr inbounds nuw %struct.pmix_server_req_t, ptr %72, i32 0, i32 1
  call void @event_active(ptr noundef %73, i32 noundef 4, i16 noundef signext 1)
  call void @llvm.lifetime.end.p0(i64 8, ptr %9) #13
  ret void
}