; Function Attrs: nounwind uwtable
define internal void @modex_resp(i32 noundef %0, ptr noundef readonly captures(address_is_null) %1, i64 noundef %2, ptr noundef %3) #0 {
  fence acquire
  %5 = getelementptr inbounds nuw i8, ptr %3, i64 248
  %6 = load i8, ptr %5, align 8, !tbaa !46, !range !47, !noundef !48
  %7 = trunc nuw i8 %6 to i1
  br i1 %7, label %8, label %11

8:                                                ; preds = %4
  %9 = getelementptr inbounds nuw i8, ptr %3, i64 120
  %10 = tail call i32 @event_del(ptr noundef nonnull %9) #17
  store i8 0, ptr %5, align 8, !tbaa !46
  br label %11

11:                                               ; preds = %8, %4
  %12 = getelementptr inbounds nuw i8, ptr %3, i64 384
  %13 = load i8, ptr %12, align 8, !tbaa !49, !range !47, !noundef !48
  %14 = trunc nuw i8 %13 to i1
  br i1 %14, label %15, label %18

15:                                               ; preds = %11
  %16 = getelementptr inbounds nuw i8, ptr %3, i64 256
  %17 = tail call i32 @event_del(ptr noundef nonnull %16) #17
  store i8 0, ptr %12, align 8, !tbaa !49
  br label %18

18:                                               ; preds = %15, %11
  %19 = getelementptr inbounds nuw i8, ptr %3, i64 385
  store i8 0, ptr %19, align 1, !tbaa !50
  %20 = getelementptr inbounds nuw i8, ptr %3, i64 420
  store i32 %0, ptr %20, align 4, !tbaa !183
  %21 = icmp eq i32 %0, 0
  %22 = icmp ne ptr %1, null
  %or.cond = and i1 %21, %22
  br i1 %or.cond, label %23, label %32

23:                                               ; preds = %18
  %24 = tail call noalias ptr @malloc(i64 noundef %2) #22
  %25 = getelementptr inbounds nuw i8, ptr %3, i64 480
  store ptr %24, ptr %25, align 8, !tbaa !184
  %26 = icmp eq ptr %24, null
  br i1 %26, label %27, label %29

27:                                               ; preds = %23
  %28 = tail call ptr @prte_strerror(i32 noundef -2) #17
  tail call void (i32, ptr, ...) @pmix_output(i32 noundef 0, ptr noundef nonnull @.str.259, ptr noundef %28, ptr noundef nonnull @.str.47, i32 noundef 1125) #17
  %.pre = load ptr, ptr %25, align 8, !tbaa !184
  br label %29

29:                                               ; preds = %27, %23
  %30 = phi ptr [ %.pre, %27 ], [ %24, %23 ]
  tail call void @llvm.memcpy.p0.p0.i64(ptr align 1 %30, ptr nonnull align 1 %1, i64 %2, i1 false)
  %31 = getelementptr inbounds nuw i8, ptr %3, i64 488
  store i64 %2, ptr %31, align 8, !tbaa !185
  br label %32

32:                                               ; preds = %29, %18
  %33 = getelementptr inbounds nuw i8, ptr %3, i64 120
  %34 = load ptr, ptr @prte_event_base, align 8, !tbaa !70
  %35 = tail call i32 @prte_event_assign(ptr noundef nonnull %33, ptr noundef %34, i32 noundef -1, i16 noundef signext 4, ptr noundef nonnull @_mdxresp, ptr noundef nonnull %3) #17
  fence release
  tail call void @event_active(ptr noundef nonnull %33, i32 noundef 4, i16 noundef signext 1) #17
  ret void
}